; Function Attrs: nounwind uwtable
define range(i32 -32, 1) i32 @pmix_ptl_base_set_notification_cbfunc(ptr noundef %0) local_unnamed_addr #1 {
  %2 = load i64, ptr getelementptr inbounds nuw (i8, ptr @pmix_ptl_posted_recv_t_class, i64 56), align 8, !tbaa !30
  %3 = tail call noalias noundef ptr @malloc(i64 noundef %2) #11
  %4 = load i32, ptr @pmix_class_init_epoch, align 4, !tbaa !33
  %5 = load i32, ptr getelementptr inbounds nuw (i8, ptr @pmix_ptl_posted_recv_t_class, i64 32), align 8, !tbaa !34
  %.not.i = icmp eq i32 %4, %5
  br i1 %.not.i, label %7, label %6

6:                                                ; preds = %1
  tail call void @pmix_class_initialize(ptr noundef nonnull @pmix_ptl_posted_recv_t_class) #12
  br label %7

7:                                                ; preds = %6, %1
  %.not22.i = icmp eq ptr %3, null
  br i1 %.not22.i, label %pmix_obj_new_tma.exit, label %8

8:                                                ; preds = %7
  %9 = tail call i32 @pthread_mutex_init(ptr noundef nonnull %3, ptr noundef null) #12
  %10 = getelementptr inbounds nuw i8, ptr %3, i64 40
  store ptr @pmix_ptl_posted_recv_t_class, ptr %10, align 8, !tbaa !35
  %11 = getelementptr inbounds nuw i8, ptr %3, i64 48
  store i32 1, ptr %11, align 8, !tbaa !36
  %12 = getelementptr inbounds nuw i8, ptr %3, i64 56
  %13 = getelementptr inbounds nuw i8, ptr %3, i64 96
  tail call void @llvm.memset.p0.i64(ptr noundef nonnull align 8 dereferenceable(32) %12, i8 0, i64 32, i1 false)
  tail call void @llvm.memset.p0.i64(ptr noundef nonnull align 8 dereferenceable(24) %13, i8 0, i64 24, i1 false)
  %14 = load ptr, ptr getelementptr inbounds nuw (i8, ptr @pmix_ptl_posted_recv_t_class, i64 40), align 8, !tbaa !37
  %15 = load ptr, ptr %14, align 8, !tbaa !38
  %.not6.i.i = icmp eq ptr %15, null
  br i1 %.not6.i.i, label %.loopexit, label %.lr.ph.i.i

.lr.ph.i.i:                                       ; preds = %8, %.lr.ph.i.i
  %16 = phi ptr [ %18, %.lr.ph.i.i ], [ %15, %8 ]
  %.07.i.i = phi ptr [ %17, %.lr.ph.i.i ], [ %14, %8 ]
  tail call void %16(ptr noundef nonnull %3) #12
  %17 = getelementptr inbounds nuw i8, ptr %.07.i.i, i64 8
  %18 = load ptr, ptr %17, align 8, !tbaa !38
  %.not.i.i = icmp eq ptr %18, null
  br i1 %.not.i.i, label %.loopexit, label %.lr.ph.i.i, !llvm.loop !39

.loopexit:                                        ; preds = %.lr.ph.i.i, %8
  %19 = getelementptr inbounds nuw i8, ptr %3, i64 272
  store i32 0, ptr %19, align 8, !tbaa !41
  %20 = getelementptr inbounds nuw i8, ptr %3, i64 280
  store ptr %0, ptr %20, align 8, !tbaa !43
  %21 = load i32, ptr getelementptr inbounds nuw (i8, ptr @pmix_ptl_base_framework, i64 76), align 4, !tbaa !44
  %or.cond = icmp ult i32 %21, 64
  br i1 %or.cond, label %22, label %28

22:                                               ; preds = %.loopexit
  %23 = zext nneg i32 %21 to i64
  %24 = getelementptr inbounds nuw [0 x %struct.pmix_output_desc_t], ptr @pmix_output_info, i64 0, i64 %23, i32 2
  %25 = load i32, ptr %24, align 4, !tbaa !47
  %26 = icmp sgt i32 %25, 4
  br i1 %26, label %27, label %28

27:                                               ; preds = %22
  tail call void (i32, ptr, ...) @pmix_output(i32 noundef %21, ptr noundef nonnull @.str, i32 noundef 0) #12
  br label %28

28:                                               ; preds = %27, %22, %.loopexit
  %29 = load ptr, ptr getelementptr inbounds nuw (i8, ptr @pmix_ptl_base, i64 248), align 8, !tbaa !49
  %30 = getelementptr inbounds nuw i8, ptr %3, i64 120
  store ptr %29, ptr %30, align 8, !tbaa !49
  %31 = getelementptr inbounds nuw i8, ptr %3, i64 128
  store ptr getelementptr inbounds nuw (i8, ptr @pmix_ptl_base, i64 128), ptr %31, align 8, !tbaa !50
  %32 = getelementptr inbounds nuw i8, ptr %29, i64 128
  store volatile ptr %3, ptr %32, align 8, !tbaa !50
  store ptr %3, ptr getelementptr inbounds nuw (i8, ptr @pmix_ptl_base, i64 248), align 8, !tbaa !49
  %33 = load volatile i64, ptr getelementptr inbounds nuw (i8, ptr @pmix_ptl_base, i64 272), align 8, !tbaa !51
  %34 = add i64 %33, 1
  store volatile i64 %34, ptr getelementptr inbounds nuw (i8, ptr @pmix_ptl_base, i64 272), align 8, !tbaa !51
  br label %pmix_obj_new_tma.exit

pmix_obj_new_tma.exit:                            ; preds = %7, %28
  %.0 = phi i32 [ 0, %28 ], [ -32, %7 ]
  ret i32 %.0
}